target datalayout = "e-m:e-p270:32:32-p271:32:32-p272:64:64-i64:64-i128:128-f80:128-n8:16:32:64-S128"
target triple = "x86_64-pc-linux-gnu"

@.str.16 = private unnamed_addr constant [4 x i8] c"%s\0A\00", align 1

; Function Attrs: nounwind uwtable
define i32 @show_sample_fmts(ptr noundef %0, ptr noundef %1, ptr noundef %2) #0 {
  %4 = alloca ptr, align 8
  %5 = alloca ptr, align 8
  %6 = alloca ptr, align 8
  %7 = alloca i32, align 4
  %8 = alloca [128 x i8], align 16
  store ptr %0, ptr %4, align 8, !tbaa !4
  store ptr %1, ptr %5, align 8, !tbaa !8
  store ptr %2, ptr %6, align 8, !tbaa !8
  call void @llvm.lifetime.start.p0(i64 4, ptr %7) #11
  call void @llvm.lifetime.start.p0(i64 128, ptr %8) #11
  store i32 -1, ptr %7, align 4, !tbaa !10
  br label %9

9:                                                ; preds = %17, %3
  %10 = load i32, ptr %7, align 4, !tbaa !10
  %11 = icmp slt i32 %10, 12
  br i1 %11, label %12, label %20

12:                                               ; preds = %9
  %13 = getelementptr inbounds [128 x i8], ptr %8, i64 0, i64 0
  %14 = load i32, ptr %7, align 4, !tbaa !10
  %15 = call ptr @av_get_sample_fmt_string(ptr noundef %13, i32 noundef 128, i32 noundef %14)
  %16 = call i32 (ptr, ...) @printf(ptr noundef @.str.16, ptr noundef %15)
  br label %17

17:                                               ; preds = %12
  %18 = load i32, ptr %7, align 4, !tbaa !10
  %19 = add nsw i32 %18, 1
  store i32 %19, ptr %7, align 4, !tbaa !10
  br label %9, !llvm.loop !122

20:                                               ; preds = %9
  call void @llvm.lifetime.end.p0(i64 128, ptr %8) #11
  call void @llvm.lifetime.end.p0(i64 4, ptr %7) #11
  ret i32 0
}