; Function Attrs: nounwind uwtable
define noundef i32 @show_sample_fmts(ptr noundef readnone captures(none) %0, ptr noundef readnone captures(none) %1, ptr noundef readnone captures(none) %2) local_unnamed_addr #2 {
  %4 = alloca [128 x i8], align 16
  call void @llvm.lifetime.start.p0(i64 128, ptr nonnull %4) #17
  br label %5

5:                                                ; preds = %3, %5
  %.03 = phi i32 [ -1, %3 ], [ %7, %5 ]
  %6 = call ptr @av_get_sample_fmt_string(ptr noundef nonnull %4, i32 noundef 128, i32 noundef %.03) #17
  %puts = call i32 @puts(ptr nonnull dereferenceable(1) %6)
  %7 = add nsw i32 %.03, 1
  %exitcond.not = icmp eq i32 %7, 12
  br i1 %exitcond.not, label %8, label %5, !llvm.loop !104

8:                                                ; preds = %5
  call void @llvm.lifetime.end.p0(i64 128, ptr nonnull %4) #17
  ret i32 0
}